target datalayout = "e-m:e-p270:32:32-p271:32:32-p272:64:64-i64:64-i128:128-f80:128-n8:16:32:64-S128"
target triple = "x86_64-pc-linux-gnu"

%struct.AVCodecContext = type { ptr, i32, i32, ptr, i32, i32, ptr, ptr, ptr, i64, i32, i32, ptr, i32, %struct.AVRational, %struct.AVRational, %struct.AVRational, i32, i32, i32, i32, i32, %struct.AVRational, i32, i32, i32, i32, i32, i32, i32, i32, i32, i32, i32, ptr, ptr, i32, float, float, float, float, float, float, float, float, float, i32, i32, i32, i32, i32, i32, i32, i32, i32, i32, i32, i32, ptr, ptr, ptr, i32, i32, i32, i32, i32, i32, i32, i32, i32, i32, %struct.AVChannelLayout, i32, i32, i32, i32, i32, i32, i32, i32, ptr, i32, i32, i32, float, float, i32, i32, i32, i32, i32, ptr, i64, i64, float, float, i32, i32, ptr, ptr, i32, i32, i32, i32, i32, ptr, ptr, ptr, ptr, i32, i32, [8 x i64], i32, i32, i32, i32, i32, i32, i32, ptr, ptr, i32, i32, i32, i32, i32, i32, i32, i32, i32, i32, ptr, ptr, i32, i32, ptr, ptr, ptr, ptr, i32, i32, i64, i32, i32, i64, ptr, i64, ptr, i32, ptr, i32 }
%struct.AVRational = type { i32, i32 }
%struct.AVChannelLayout = type { i32, i32, %union.anon.0, ptr }
%union.anon.0 = type { i64 }

@.str.2 = private unnamed_addr constant [41 x i8] c"Missing or too small extradata (size %d)\00", align 1
@.str.3 = private unnamed_addr constant [7 x i8] c"BPS %d\00", align 1

; Function Attrs: cold nounwind optsize uwtable
define internal i32 @m101_decode_init(ptr noundef %0) #0 {
  %2 = alloca i32, align 4
  %3 = alloca ptr, align 8
  store ptr %0, ptr %3, align 8, !tbaa !4
  %4 = load ptr, ptr %3, align 8, !tbaa !4
  %5 = getelementptr inbounds nuw %struct.AVCodecContext, ptr %4, i32 0, i32 13
  %6 = load i32, ptr %5, align 8, !tbaa !9
  %7 = icmp slt i32 %6, 24
  br i1 %7, label %8, label %13

8:                                                ; preds = %1
  %9 = load ptr, ptr %3, align 8, !tbaa !4
  %10 = load ptr, ptr %3, align 8, !tbaa !4
  %11 = getelementptr inbounds nuw %struct.AVCodecContext, ptr %10, i32 0, i32 13
  %12 = load i32, ptr %11, align 8, !tbaa !9
  call void (ptr, ptr, ...) @avpriv_request_sample(ptr noundef %9, ptr noundef @.str.2, i32 noundef %12)
  store i32 -1094995529, ptr %2, align 4
  br label %45

13:                                               ; preds = %1
  %14 = load ptr, ptr %3, align 8, !tbaa !4
  %15 = getelementptr inbounds nuw %struct.AVCodecContext, ptr %14, i32 0, i32 12
  %16 = load ptr, ptr %15, align 8, !tbaa !29
  %17 = getelementptr inbounds i8, ptr %16, i64 8
  %18 = load i8, ptr %17, align 1, !tbaa !30
  %19 = zext i8 %18 to i32
  %20 = icmp eq i32 %19, 10
  br i1 %20, label %21, label %24

21:                                               ; preds = %13
  %22 = load ptr, ptr %3, align 8, !tbaa !4
  %23 = getelementptr inbounds nuw %struct.AVCodecContext, ptr %22, i32 0, i32 23
  store i32 64, ptr %23, align 8, !tbaa !31
  br label %44

24:                                               ; preds = %13
  %25 = load ptr, ptr %3, align 8, !tbaa !4
  %26 = getelementptr inbounds nuw %struct.AVCodecContext, ptr %25, i32 0, i32 12
  %27 = load ptr, ptr %26, align 8, !tbaa !29
  %28 = getelementptr inbounds i8, ptr %27, i64 8
  %29 = load i8, ptr %28, align 1, !tbaa !30
  %30 = zext i8 %29 to i32
  %31 = icmp eq i32 %30, 8
  br i1 %31, label %32, label %35

32:                                               ; preds = %24
  %33 = load ptr, ptr %3, align 8, !tbaa !4
  %34 = getelementptr inbounds nuw %struct.AVCodecContext, ptr %33, i32 0, i32 23
  store i32 1, ptr %34, align 8, !tbaa !31
  br label %43

35:                                               ; preds = %24
  %36 = load ptr, ptr %3, align 8, !tbaa !4
  %37 = load ptr, ptr %3, align 8, !tbaa !4
  %38 = getelementptr inbounds nuw %struct.AVCodecContext, ptr %37, i32 0, i32 12
  %39 = load ptr, ptr %38, align 8, !tbaa !29
  %40 = getelementptr inbounds i8, ptr %39, i64 8
  %41 = load i8, ptr %40, align 1, !tbaa !30
  %42 = zext i8 %41 to i32
  call void (ptr, ptr, ...) @avpriv_request_sample(ptr noundef %36, ptr noundef @.str.3, i32 noundef %42)
  store i32 -1094995529, ptr %2, align 4
  br label %45

43:                                               ; preds = %32
  br label %44

44:                                               ; preds = %43, %21
  store i32 0, ptr %2, align 4
  br label %45

45:                                               ; preds = %44, %35, %8
  %46 = load i32, ptr %2, align 4
  ret i32 %46
}