; Function Attrs: cold nounwind optsize uwtable
define internal range(i32 -1094995529, 1) i32 @m101_decode_init(ptr noundef %0) #0 {
  %2 = getelementptr inbounds nuw i8, ptr %0, i64 80
  %3 = load i32, ptr %2, align 8, !tbaa !4
  %4 = icmp slt i32 %3, 24
  br i1 %4, label %5, label %6

5:                                                ; preds = %1
  tail call void (ptr, ptr, ...) @avpriv_request_sample(ptr noundef nonnull %0, ptr noundef nonnull @.str.2, i32 noundef %3) #4
  br label %17

6:                                                ; preds = %1
  %7 = getelementptr inbounds nuw i8, ptr %0, i64 72
  %8 = load ptr, ptr %7, align 8, !tbaa !27
  %9 = getelementptr inbounds nuw i8, ptr %8, i64 8
  %10 = load i8, ptr %9, align 1, !tbaa !28
  switch i8 %10, label %15 [
    i8 10, label %11
    i8 8, label %13
  ]

11:                                               ; preds = %6
  %12 = getelementptr inbounds nuw i8, ptr %0, i64 136
  store i32 64, ptr %12, align 8, !tbaa !29
  br label %17

13:                                               ; preds = %6
  %14 = getelementptr inbounds nuw i8, ptr %0, i64 136
  store i32 1, ptr %14, align 8, !tbaa !29
  br label %17

15:                                               ; preds = %6
  %16 = zext i8 %10 to i32
  tail call void (ptr, ptr, ...) @avpriv_request_sample(ptr noundef nonnull %0, ptr noundef nonnull @.str.3, i32 noundef %16) #4
  br label %17

17:                                               ; preds = %11, %13, %15, %5
  %.0 = phi i32 [ -1094995529, %5 ], [ -1094995529, %15 ], [ 0, %13 ], [ 0, %11 ]
  ret i32 %.0
}